; Function Attrs: nounwind uwtable
define internal ptr @iframe_getline(ptr readnone captures(none) %0, ptr noundef readonly captures(none) %1) #0 {
  %3 = getelementptr i8, ptr %1, i64 8
  %.val = load ptr, ptr %3, align 8, !tbaa !46
  %.not = icmp eq ptr %.val, @PyFrame_Type
  br i1 %.not, label %6, label %4

4:                                                ; preds = %2
  %5 = load ptr, ptr @PyExc_TypeError, align 8, !tbaa !9
  tail call void @PyErr_SetString(ptr noundef %5, ptr noundef nonnull @.str.205) #11
  br label %12

6:                                                ; preds = %2
  %7 = getelementptr inbounds nuw i8, ptr %1, i64 24
  %8 = load ptr, ptr %7, align 8, !tbaa !140
  %9 = tail call i32 @PyUnstable_InterpreterFrame_GetLine(ptr noundef %8) #11
  %10 = sext i32 %9 to i64
  %11 = tail call ptr @PyLong_FromLong(i64 noundef %10) #11
  br label %12

12:                                               ; preds = %6, %4
  %.0 = phi ptr [ %11, %6 ], [ null, %4 ]
  ret ptr %.0
}